; ModuleID = 'bench/php/original/after_after_frameset.ll'
source_filename = "bench/php/original/after_after_frameset.ll"
target datalayout = "e-m:e-p270:32:32-p271:32:32-p272:64:64-i64:64-i128:128-f80:128-n8:16:32:64-S128"
target triple = "x86_64-pc-linux-gnu"

%struct.lxb_html_token_t = type { ptr, ptr, i64, i64, ptr, ptr, ptr, ptr, ptr, i64, i64, i32 }

; Function Attrs: nounwind uwtable
define hidden zeroext i1 @lxb_html_tree_insertion_mode_after_after_frameset(ptr noundef %0, ptr noundef %1) local_unnamed_addr #0 {
  %3 = alloca %struct.lxb_html_token_t, align 8
  %4 = getelementptr inbounds i8, ptr %1, i64 80
  %5 = load i64, ptr %4, align 8
  switch i64 %5, label %35 [
    i64 4, label %6
    i64 5, label %13
    i64 101, label %13
    i64 1, label %15
    i64 138, label %20
    i64 2, label %22
  ]

6:                                                ; preds = %2
  %7 = getelementptr inbounds i8, ptr %0, i64 8
  %8 = load ptr, ptr %7, align 8
  %9 = tail call ptr @lxb_html_tree_insert_comment(ptr noundef %0, ptr noundef nonnull %1, ptr noundef %8) #3
  %10 = icmp eq ptr %9, null
  br i1 %10, label %11, label %36

11:                                               ; preds = %6
  %12 = tail call zeroext i1 @lxb_html_tree_process_abort(ptr noundef nonnull %0) #3
  br label %36

13:                                               ; preds = %2, %2
  %14 = tail call zeroext i1 @lxb_html_tree_insertion_mode_in_body(ptr noundef %0, ptr noundef nonnull %1) #3
  br label %36

15:                                               ; preds = %2
  %16 = tail call i32 @lxb_html_tree_stop_parsing(ptr noundef %0) #3
  %17 = getelementptr inbounds i8, ptr %0, i64 112
  store i32 %16, ptr %17, align 8
  %.not23 = icmp eq i32 %16, 0
  br i1 %.not23, label %36, label %18

18:                                               ; preds = %15
  %19 = tail call zeroext i1 @lxb_html_tree_process_abort(ptr noundef nonnull %0) #3
  br label %36

20:                                               ; preds = %2
  %21 = tail call zeroext i1 @lxb_html_tree_insertion_mode_in_head(ptr noundef %0, ptr noundef nonnull %1) #3
  br label %36

22:                                               ; preds = %2
  call void @llvm.memcpy.p0.p0.i64(ptr noundef nonnull align 8 dereferenceable(96) %3, ptr noundef nonnull align 8 dereferenceable(96) %1, i64 96, i1 false)
  %23 = call i32 @lxb_html_token_data_skip_ws_begin(ptr noundef nonnull %3) #3
  %24 = getelementptr inbounds i8, ptr %0, i64 112
  store i32 %23, ptr %24, align 8
  %.not = icmp eq i32 %23, 0
  br i1 %.not, label %27, label %25

25:                                               ; preds = %22
  %26 = call zeroext i1 @lxb_html_tree_process_abort(ptr noundef nonnull %0) #3
  br label %36

27:                                               ; preds = %22
  %28 = getelementptr inbounds i8, ptr %3, i64 32
  %29 = load ptr, ptr %28, align 8
  %30 = getelementptr inbounds i8, ptr %3, i64 40
  %31 = load ptr, ptr %30, align 8
  %32 = icmp eq ptr %29, %31
  br i1 %32, label %33, label %35

33:                                               ; preds = %27
  %34 = call zeroext i1 @lxb_html_tree_insertion_mode_in_body(ptr noundef nonnull %0, ptr noundef nonnull %1) #3
  br label %36

35:                                               ; preds = %27, %2
  call void @lxb_html_tree_parse_error(ptr noundef %0, ptr noundef nonnull %1, i32 noundef 0) #3
  br label %36

36:                                               ; preds = %35, %6, %15, %33, %25, %20, %18, %13, %11
  %.0 = phi i1 [ %26, %25 ], [ %34, %33 ], [ %21, %20 ], [ %19, %18 ], [ %14, %13 ], [ %12, %11 ], [ true, %15 ], [ true, %6 ], [ true, %35 ]
  ret i1 %.0
}

declare ptr @lxb_html_tree_insert_comment(ptr noundef, ptr noundef, ptr noundef) local_unnamed_addr #1

declare zeroext i1 @lxb_html_tree_process_abort(ptr noundef) local_unnamed_addr #1

declare zeroext i1 @lxb_html_tree_insertion_mode_in_body(ptr noundef, ptr noundef) local_unnamed_addr #1

declare i32 @lxb_html_tree_stop_parsing(ptr noundef) local_unnamed_addr #1

declare zeroext i1 @lxb_html_tree_insertion_mode_in_head(ptr noundef, ptr noundef) local_unnamed_addr #1

; Function Attrs: mustprogress nocallback nofree nounwind willreturn memory(argmem: readwrite)
declare void @llvm.memcpy.p0.p0.i64(ptr noalias nocapture writeonly, ptr noalias nocapture readonly, i64, i1 immarg) #2

declare i32 @lxb_html_token_data_skip_ws_begin(ptr noundef) local_unnamed_addr #1

declare void @lxb_html_tree_parse_error(ptr noundef, ptr noundef, i32 noundef) local_unnamed_addr #1


!llvm.module.flags = !{!0, !1, !2, !3}

!0 = !{i32 1, !"wchar_size", i32 4}
!1 = !{i32 8, !"PIC Level", i32 2}
!2 = !{i32 7, !"uwtable", i32 2}
!3 = !{i32 7, !"frame-pointer", i32 2}
